ARM GAS  /var/folders/r3/q90cplg97h56h5p7mk3669200000gn/T//cc4OtIRC.s 			page 1


   1              		.cpu cortex-m7
   2              		.eabi_attribute 28, 1
   3              		.eabi_attribute 20, 1
   4              		.eabi_attribute 21, 1
   5              		.eabi_attribute 23, 3
   6              		.eabi_attribute 24, 1
   7              		.eabi_attribute 25, 1
   8              		.eabi_attribute 26, 1
   9              		.eabi_attribute 30, 2
  10              		.eabi_attribute 34, 1
  11              		.eabi_attribute 18, 4
  12              		.file	"OkayAdsr.cpp"
  13              		.text
  14              	.Ltext0:
  15              		.cfi_sections	.debug_frame
  16              		.section	.text._ZN8OkayAdsr4initEff,"ax",%progbits
  17              		.align	1
  18              		.p2align 2,,3
  19              		.global	_ZN8OkayAdsr4initEff
  20              		.arch armv7e-m
  21              		.syntax unified
  22              		.thumb
  23              		.thumb_func
  24              		.fpu fpv5-d16
  26              	_ZN8OkayAdsr4initEff:
  27              	.LVL0:
  28              	.LFB544:
  29              		.file 1 "OkayAdsr.cpp"
   1:OkayAdsr.cpp  **** #include "OkayAdsr.h"
   2:OkayAdsr.cpp  **** 
   3:OkayAdsr.cpp  **** void OkayAdsr::init(float sampleRate, float blockSize) {
  30              		.loc 1 3 56 view -0
  31              		.cfi_startproc
  32              		@ args = 0, pretend = 0, frame = 0
  33              		@ frame_needed = 0, uses_anonymous_args = 0
  34              		@ link register save eliminated.
   4:OkayAdsr.cpp  ****   this->sampleRate = sampleRate;
  35              		.loc 1 4 3 view .LVU1
   5:OkayAdsr.cpp  ****   this->blockSize = blockSize;
   6:OkayAdsr.cpp  ****   this->runState = 0;
  36              		.loc 1 6 18 is_stmt 0 view .LVU2
  37 0000 0023     		movs	r3, #0
   4:OkayAdsr.cpp  ****   this->sampleRate = sampleRate;
  38              		.loc 1 4 20 view .LVU3
  39 0002 80ED000A 		vstr.32	s0, [r0]
   5:OkayAdsr.cpp  ****   this->blockSize = blockSize;
  40              		.loc 1 5 3 is_stmt 1 view .LVU4
   5:OkayAdsr.cpp  ****   this->blockSize = blockSize;
  41              		.loc 1 5 19 is_stmt 0 view .LVU5
  42 0006 C0ED010A 		vstr.32	s1, [r0, #4]
  43              		.loc 1 6 3 is_stmt 1 view .LVU6
  44              		.loc 1 6 18 is_stmt 0 view .LVU7
  45 000a 0362     		str	r3, [r0, #32]
   7:OkayAdsr.cpp  **** }
  46              		.loc 1 7 1 view .LVU8
  47 000c 7047     		bx	lr
  48              		.cfi_endproc
ARM GAS  /var/folders/r3/q90cplg97h56h5p7mk3669200000gn/T//cc4OtIRC.s 			page 2


  49              	.LFE544:
  51 000e 00BF     		.section	.text._Z18convertMsToSamplesff,"ax",%progbits
  52              		.align	1
  53              		.p2align 2,,3
  54              		.global	_Z18convertMsToSamplesff
  55              		.syntax unified
  56              		.thumb
  57              		.thumb_func
  58              		.fpu fpv5-d16
  60              	_Z18convertMsToSamplesff:
  61              	.LVL1:
  62              	.LFB545:
   8:OkayAdsr.cpp  **** 
   9:OkayAdsr.cpp  **** float convertMsToSamples(float sampleRate, float timeMs){
  63              		.loc 1 9 57 is_stmt 1 view -0
  64              		.cfi_startproc
  65              		@ args = 0, pretend = 0, frame = 0
  66              		@ frame_needed = 0, uses_anonymous_args = 0
  67              		@ link register save eliminated.
  10:OkayAdsr.cpp  ****   if(timeMs == 0) {
  68              		.loc 1 10 3 view .LVU10
  69 0000 F5EE400A 		vcmp.f32	s1, #0
   9:OkayAdsr.cpp  ****   if(timeMs == 0) {
  70              		.loc 1 9 57 is_stmt 0 view .LVU11
  71 0004 F0EE407A 		vmov.f32	s15, s0
  72              		.loc 1 10 3 view .LVU12
  73 0008 F1EE10FA 		vmrs	APSR_nzcv, FPSCR
  74 000c 0AD0     		beq	.L5
  11:OkayAdsr.cpp  ****     return 0;
  12:OkayAdsr.cpp  ****   }
  13:OkayAdsr.cpp  **** 
  14:OkayAdsr.cpp  ****   return sampleRate / (1/(timeMs/1000));
  75              		.loc 1 14 3 is_stmt 1 view .LVU13
  76              		.loc 1 14 33 is_stmt 0 view .LVU14
  77 000e 9FED077A 		vldr.32	s14, .L6
  78              		.loc 1 14 25 view .LVU15
  79 0012 B7EE006A 		vmov.f32	s12, #1.0e+0
  80              		.loc 1 14 33 view .LVU16
  81 0016 C0EE876A 		vdiv.f32	s13, s1, s14
  82              		.loc 1 14 25 view .LVU17
  83 001a 86EE267A 		vdiv.f32	s14, s12, s13
  84              		.loc 1 14 39 view .LVU18
  85 001e 87EE870A 		vdiv.f32	s0, s15, s14
  86              	.LVL2:
  87              		.loc 1 14 39 view .LVU19
  88 0022 7047     		bx	lr
  89              	.LVL3:
  90              	.L5:
  11:OkayAdsr.cpp  ****     return 0;
  91              		.loc 1 11 12 view .LVU20
  92 0024 9FED020A 		vldr.32	s0, .L6+4
  93              	.LVL4:
  15:OkayAdsr.cpp  **** }
  94              		.loc 1 15 1 view .LVU21
  95 0028 7047     		bx	lr
  96              	.L7:
  97 002a 00BF     		.align	2
ARM GAS  /var/folders/r3/q90cplg97h56h5p7mk3669200000gn/T//cc4OtIRC.s 			page 3


  98              	.L6:
  99 002c 00007A44 		.word	1148846080
 100 0030 00000000 		.word	0
 101              		.cfi_endproc
 102              	.LFE545:
 104              		.section	.text._ZN8OkayAdsr9setAttackEf,"ax",%progbits
 105              		.align	1
 106              		.p2align 2,,3
 107              		.global	_ZN8OkayAdsr9setAttackEf
 108              		.syntax unified
 109              		.thumb
 110              		.thumb_func
 111              		.fpu fpv5-d16
 113              	_ZN8OkayAdsr9setAttackEf:
 114              	.LVL5:
 115              	.LFB546:
  16:OkayAdsr.cpp  **** 
  17:OkayAdsr.cpp  **** // Take milliseconds as input and convert to sample length
  18:OkayAdsr.cpp  **** void OkayAdsr::setAttack(float timeMs) {
 116              		.loc 1 18 40 is_stmt 1 view -0
 117              		.cfi_startproc
 118              		@ args = 0, pretend = 0, frame = 0
 119              		@ frame_needed = 0, uses_anonymous_args = 0
 120              		@ link register save eliminated.
  19:OkayAdsr.cpp  ****   this->attackTimeSamples = convertMsToSamples(this->sampleRate, timeMs);
 121              		.loc 1 19 3 view .LVU23
 122              	.LBB8:
 123              	.LBB9:
  10:OkayAdsr.cpp  ****     return 0;
 124              		.loc 1 10 3 is_stmt 0 view .LVU24
 125 0000 B5EE400A 		vcmp.f32	s0, #0
 126              	.LBE9:
 127              	.LBE8:
 128              		.loc 1 19 47 view .LVU25
 129 0004 90ED007A 		vldr.32	s14, [r0]
 130              	.LVL6:
 131              	.LBB12:
 132              	.LBI8:
   9:OkayAdsr.cpp  ****   if(timeMs == 0) {
 133              		.loc 1 9 7 is_stmt 1 view .LVU26
 134              	.LBB10:
  10:OkayAdsr.cpp  ****     return 0;
 135              		.loc 1 10 3 view .LVU27
 136 0008 F1EE10FA 		vmrs	APSR_nzcv, FPSCR
 137 000c 0CD0     		beq	.L10
  14:OkayAdsr.cpp  **** }
 138              		.loc 1 14 3 view .LVU28
  14:OkayAdsr.cpp  **** }
 139              		.loc 1 14 33 is_stmt 0 view .LVU29
 140 000e DFED096A 		vldr.32	s13, .L11
  14:OkayAdsr.cpp  **** }
 141              		.loc 1 14 25 view .LVU30
 142 0012 B7EE006A 		vmov.f32	s12, #1.0e+0
  14:OkayAdsr.cpp  **** }
 143              		.loc 1 14 33 view .LVU31
 144 0016 C0EE267A 		vdiv.f32	s15, s0, s13
  14:OkayAdsr.cpp  **** }
ARM GAS  /var/folders/r3/q90cplg97h56h5p7mk3669200000gn/T//cc4OtIRC.s 			page 4


 145              		.loc 1 14 25 view .LVU32
 146 001a C6EE276A 		vdiv.f32	s13, s12, s15
  14:OkayAdsr.cpp  **** }
 147              		.loc 1 14 39 view .LVU33
 148 001e C7EE267A 		vdiv.f32	s15, s14, s13
 149              	.LVL7:
  14:OkayAdsr.cpp  **** }
 150              		.loc 1 14 39 view .LVU34
 151              	.LBE10:
 152              	.LBE12:
 153              		.loc 1 19 27 view .LVU35
 154 0022 C0ED047A 		vstr.32	s15, [r0, #16]
  20:OkayAdsr.cpp  **** }
 155              		.loc 1 20 1 view .LVU36
 156 0026 7047     		bx	lr
 157              	.LVL8:
 158              	.L10:
 159              	.LBB13:
 160              	.LBB11:
  11:OkayAdsr.cpp  ****   }
 161              		.loc 1 11 12 view .LVU37
 162 0028 DFED037A 		vldr.32	s15, .L11+4
 163              	.LVL9:
  11:OkayAdsr.cpp  ****   }
 164              		.loc 1 11 12 view .LVU38
 165              	.LBE11:
 166              	.LBE13:
  19:OkayAdsr.cpp  **** }
 167              		.loc 1 19 27 view .LVU39
 168 002c C0ED047A 		vstr.32	s15, [r0, #16]
 169              		.loc 1 20 1 view .LVU40
 170 0030 7047     		bx	lr
 171              	.L12:
 172 0032 00BF     		.align	2
 173              	.L11:
 174 0034 00007A44 		.word	1148846080
 175 0038 00000000 		.word	0
 176              		.cfi_endproc
 177              	.LFE546:
 179              		.section	.text._ZN8OkayAdsr8setDecayEf,"ax",%progbits
 180              		.align	1
 181              		.p2align 2,,3
 182              		.global	_ZN8OkayAdsr8setDecayEf
 183              		.syntax unified
 184              		.thumb
 185              		.thumb_func
 186              		.fpu fpv5-d16
 188              	_ZN8OkayAdsr8setDecayEf:
 189              	.LVL10:
 190              	.LFB547:
  21:OkayAdsr.cpp  **** 
  22:OkayAdsr.cpp  **** void OkayAdsr::setDecay(float timeMs) {
 191              		.loc 1 22 39 is_stmt 1 view -0
 192              		.cfi_startproc
 193              		@ args = 0, pretend = 0, frame = 0
 194              		@ frame_needed = 0, uses_anonymous_args = 0
 195              		@ link register save eliminated.
ARM GAS  /var/folders/r3/q90cplg97h56h5p7mk3669200000gn/T//cc4OtIRC.s 			page 5


  23:OkayAdsr.cpp  ****   this->decayTimeSamples = convertMsToSamples(this->sampleRate, timeMs);
 196              		.loc 1 23 3 view .LVU42
 197              	.LBB14:
 198              	.LBB15:
  10:OkayAdsr.cpp  ****     return 0;
 199              		.loc 1 10 3 is_stmt 0 view .LVU43
 200 0000 B5EE400A 		vcmp.f32	s0, #0
 201              	.LBE15:
 202              	.LBE14:
 203              		.loc 1 23 46 view .LVU44
 204 0004 90ED007A 		vldr.32	s14, [r0]
 205              	.LVL11:
 206              	.LBB18:
 207              	.LBI14:
   9:OkayAdsr.cpp  ****   if(timeMs == 0) {
 208              		.loc 1 9 7 is_stmt 1 view .LVU45
 209              	.LBB16:
  10:OkayAdsr.cpp  ****     return 0;
 210              		.loc 1 10 3 view .LVU46
 211 0008 F1EE10FA 		vmrs	APSR_nzcv, FPSCR
 212 000c 0CD0     		beq	.L15
  14:OkayAdsr.cpp  **** }
 213              		.loc 1 14 3 view .LVU47
  14:OkayAdsr.cpp  **** }
 214              		.loc 1 14 33 is_stmt 0 view .LVU48
 215 000e DFED096A 		vldr.32	s13, .L16
  14:OkayAdsr.cpp  **** }
 216              		.loc 1 14 25 view .LVU49
 217 0012 B7EE006A 		vmov.f32	s12, #1.0e+0
  14:OkayAdsr.cpp  **** }
 218              		.loc 1 14 33 view .LVU50
 219 0016 C0EE267A 		vdiv.f32	s15, s0, s13
  14:OkayAdsr.cpp  **** }
 220              		.loc 1 14 25 view .LVU51
 221 001a C6EE276A 		vdiv.f32	s13, s12, s15
  14:OkayAdsr.cpp  **** }
 222              		.loc 1 14 39 view .LVU52
 223 001e C7EE267A 		vdiv.f32	s15, s14, s13
 224              	.LVL12:
  14:OkayAdsr.cpp  **** }
 225              		.loc 1 14 39 view .LVU53
 226              	.LBE16:
 227              	.LBE18:
 228              		.loc 1 23 26 view .LVU54
 229 0022 C0ED057A 		vstr.32	s15, [r0, #20]
  24:OkayAdsr.cpp  **** }
 230              		.loc 1 24 1 view .LVU55
 231 0026 7047     		bx	lr
 232              	.LVL13:
 233              	.L15:
 234              	.LBB19:
 235              	.LBB17:
  11:OkayAdsr.cpp  ****   }
 236              		.loc 1 11 12 view .LVU56
 237 0028 DFED037A 		vldr.32	s15, .L16+4
 238              	.LVL14:
  11:OkayAdsr.cpp  ****   }
ARM GAS  /var/folders/r3/q90cplg97h56h5p7mk3669200000gn/T//cc4OtIRC.s 			page 6


 239              		.loc 1 11 12 view .LVU57
 240              	.LBE17:
 241              	.LBE19:
  23:OkayAdsr.cpp  **** }
 242              		.loc 1 23 26 view .LVU58
 243 002c C0ED057A 		vstr.32	s15, [r0, #20]
 244              		.loc 1 24 1 view .LVU59
 245 0030 7047     		bx	lr
 246              	.L17:
 247 0032 00BF     		.align	2
 248              	.L16:
 249 0034 00007A44 		.word	1148846080
 250 0038 00000000 		.word	0
 251              		.cfi_endproc
 252              	.LFE547:
 254              		.section	.text._ZN8OkayAdsr10setReleaseEf,"ax",%progbits
 255              		.align	1
 256              		.p2align 2,,3
 257              		.global	_ZN8OkayAdsr10setReleaseEf
 258              		.syntax unified
 259              		.thumb
 260              		.thumb_func
 261              		.fpu fpv5-d16
 263              	_ZN8OkayAdsr10setReleaseEf:
 264              	.LVL15:
 265              	.LFB548:
  25:OkayAdsr.cpp  **** 
  26:OkayAdsr.cpp  **** void OkayAdsr::setRelease(float timeMs) {
 266              		.loc 1 26 41 is_stmt 1 view -0
 267              		.cfi_startproc
 268              		@ args = 0, pretend = 0, frame = 0
 269              		@ frame_needed = 0, uses_anonymous_args = 0
 270              		@ link register save eliminated.
  27:OkayAdsr.cpp  ****   this->releaseTimeSamples = convertMsToSamples(this->sampleRate, timeMs);
 271              		.loc 1 27 3 view .LVU61
 272              	.LBB20:
 273              	.LBB21:
  10:OkayAdsr.cpp  ****     return 0;
 274              		.loc 1 10 3 is_stmt 0 view .LVU62
 275 0000 B5EE400A 		vcmp.f32	s0, #0
 276              	.LBE21:
 277              	.LBE20:
 278              		.loc 1 27 48 view .LVU63
 279 0004 90ED007A 		vldr.32	s14, [r0]
 280              	.LVL16:
 281              	.LBB24:
 282              	.LBI20:
   9:OkayAdsr.cpp  ****   if(timeMs == 0) {
 283              		.loc 1 9 7 is_stmt 1 view .LVU64
 284              	.LBB22:
  10:OkayAdsr.cpp  ****     return 0;
 285              		.loc 1 10 3 view .LVU65
 286 0008 F1EE10FA 		vmrs	APSR_nzcv, FPSCR
 287 000c 0CD0     		beq	.L20
  14:OkayAdsr.cpp  **** }
 288              		.loc 1 14 3 view .LVU66
  14:OkayAdsr.cpp  **** }
ARM GAS  /var/folders/r3/q90cplg97h56h5p7mk3669200000gn/T//cc4OtIRC.s 			page 7


 289              		.loc 1 14 33 is_stmt 0 view .LVU67
 290 000e DFED096A 		vldr.32	s13, .L21
  14:OkayAdsr.cpp  **** }
 291              		.loc 1 14 25 view .LVU68
 292 0012 B7EE006A 		vmov.f32	s12, #1.0e+0
  14:OkayAdsr.cpp  **** }
 293              		.loc 1 14 33 view .LVU69
 294 0016 C0EE267A 		vdiv.f32	s15, s0, s13
  14:OkayAdsr.cpp  **** }
 295              		.loc 1 14 25 view .LVU70
 296 001a C6EE276A 		vdiv.f32	s13, s12, s15
  14:OkayAdsr.cpp  **** }
 297              		.loc 1 14 39 view .LVU71
 298 001e C7EE267A 		vdiv.f32	s15, s14, s13
 299              	.LVL17:
  14:OkayAdsr.cpp  **** }
 300              		.loc 1 14 39 view .LVU72
 301              	.LBE22:
 302              	.LBE24:
 303              		.loc 1 27 28 view .LVU73
 304 0022 C0ED067A 		vstr.32	s15, [r0, #24]
  28:OkayAdsr.cpp  **** }
 305              		.loc 1 28 1 view .LVU74
 306 0026 7047     		bx	lr
 307              	.LVL18:
 308              	.L20:
 309              	.LBB25:
 310              	.LBB23:
  11:OkayAdsr.cpp  ****   }
 311              		.loc 1 11 12 view .LVU75
 312 0028 DFED037A 		vldr.32	s15, .L21+4
 313              	.LVL19:
  11:OkayAdsr.cpp  ****   }
 314              		.loc 1 11 12 view .LVU76
 315              	.LBE23:
 316              	.LBE25:
  27:OkayAdsr.cpp  **** }
 317              		.loc 1 27 28 view .LVU77
 318 002c C0ED067A 		vstr.32	s15, [r0, #24]
 319              		.loc 1 28 1 view .LVU78
 320 0030 7047     		bx	lr
 321              	.L22:
 322 0032 00BF     		.align	2
 323              	.L21:
 324 0034 00007A44 		.word	1148846080
 325 0038 00000000 		.word	0
 326              		.cfi_endproc
 327              	.LFE548:
 329              		.section	.text._ZN8OkayAdsr4tickEi,"ax",%progbits
 330              		.align	1
 331              		.p2align 2,,3
 332              		.global	_ZN8OkayAdsr4tickEi
 333              		.syntax unified
 334              		.thumb
 335              		.thumb_func
 336              		.fpu fpv5-d16
 338              	_ZN8OkayAdsr4tickEi:
ARM GAS  /var/folders/r3/q90cplg97h56h5p7mk3669200000gn/T//cc4OtIRC.s 			page 8


 339              	.LVL20:
 340              	.LFB549:
  29:OkayAdsr.cpp  **** 
  30:OkayAdsr.cpp  **** float OkayAdsr::tick(int isGateHigh) {
 341              		.loc 1 30 38 is_stmt 1 view -0
 342              		.cfi_startproc
 343              		@ args = 0, pretend = 0, frame = 0
 344              		@ frame_needed = 0, uses_anonymous_args = 0
 345              		@ link register save eliminated.
  31:OkayAdsr.cpp  ****   // isGateHigh = 1;
  32:OkayAdsr.cpp  **** 
  33:OkayAdsr.cpp  ****   // Not running, low gate. Do nothing.
  34:OkayAdsr.cpp  ****   if(!isGateHigh && this->runState == 0) {
 346              		.loc 1 34 3 view .LVU80
 347              		.loc 1 34 27 is_stmt 0 view .LVU81
 348 0000 036A     		ldr	r3, [r0, #32]
 349              		.loc 1 34 3 view .LVU82
 350 0002 D9B1     		cbz	r1, .L36
  35:OkayAdsr.cpp  ****     this->output = 0;
  36:OkayAdsr.cpp  ****     return this->output;
  37:OkayAdsr.cpp  ****   }
  38:OkayAdsr.cpp  **** 
  39:OkayAdsr.cpp  ****   // Not running, high gate. Start attack.
  40:OkayAdsr.cpp  ****   if(isGateHigh && this->runState == 0) {
 351              		.loc 1 40 3 is_stmt 1 discriminator 1 view .LVU83
 352              		.loc 1 40 17 is_stmt 0 discriminator 1 view .LVU84
 353 0004 33B1     		cbz	r3, .L37
 354              	.L25:
  41:OkayAdsr.cpp  ****     this->runState = 1;
  42:OkayAdsr.cpp  ****     runDeltaTime = 0;
  43:OkayAdsr.cpp  ****   }
  44:OkayAdsr.cpp  **** 
  45:OkayAdsr.cpp  ****   // Attack can disregard the gate state, as long it was
  46:OkayAdsr.cpp  ****   // triggered earlier.
  47:OkayAdsr.cpp  ****   if(this->runState == 1) {
 355              		.loc 1 47 3 is_stmt 1 view .LVU85
 356 0006 012B     		cmp	r3, #1
 357 0008 08D0     		beq	.L27
  48:OkayAdsr.cpp  ****     if(attackTimeSamples == 0) {
  49:OkayAdsr.cpp  ****       this->output = 1;
  50:OkayAdsr.cpp  ****     } else {
  51:OkayAdsr.cpp  ****       this->output = this->output + (this->blockSize * (1 / attackTimeSamples));
  52:OkayAdsr.cpp  ****     }
  53:OkayAdsr.cpp  **** 
  54:OkayAdsr.cpp  ****     // Do not exceed 1, and if we hit that, switch to next segment
  55:OkayAdsr.cpp  ****     if(this->output >= 1) {
  56:OkayAdsr.cpp  ****       this->output = 1;
  57:OkayAdsr.cpp  ****       this->runState = 2;
  58:OkayAdsr.cpp  ****     }
  59:OkayAdsr.cpp  **** 
  60:OkayAdsr.cpp  ****     return this->output;
  61:OkayAdsr.cpp  ****   }
  62:OkayAdsr.cpp  **** 
  63:OkayAdsr.cpp  ****   if(this->runState == 2) {
 358              		.loc 1 63 3 view .LVU86
 359 000a 022B     		cmp	r3, #2
 360 000c 31D0     		beq	.L38
ARM GAS  /var/folders/r3/q90cplg97h56h5p7mk3669200000gn/T//cc4OtIRC.s 			page 9


  64:OkayAdsr.cpp  ****     if(decayTimeSamples == 0) {
  65:OkayAdsr.cpp  ****       this->output = 0;
  66:OkayAdsr.cpp  ****     } else {
  67:OkayAdsr.cpp  ****       this->output = this->output - (this->blockSize * (1 / decayTimeSamples));
  68:OkayAdsr.cpp  ****     }
  69:OkayAdsr.cpp  **** 
  70:OkayAdsr.cpp  ****     // Do not exceed 1, and if we hit that, switch to next segment
  71:OkayAdsr.cpp  ****     if(this->output <= 0) {
  72:OkayAdsr.cpp  ****       this->output = 0;
  73:OkayAdsr.cpp  ****       this->runState = 0;
  74:OkayAdsr.cpp  ****     }
  75:OkayAdsr.cpp  **** 
  76:OkayAdsr.cpp  ****     return this->output;
  77:OkayAdsr.cpp  ****   }
  78:OkayAdsr.cpp  **** 
  79:OkayAdsr.cpp  ****   return this->output;
 361              		.loc 1 79 3 view .LVU87
 362              		.loc 1 79 16 is_stmt 0 view .LVU88
 363 000e 90ED020A 		vldr.32	s0, [r0, #8]
 364              	.L23:
  80:OkayAdsr.cpp  **** }...
 365              		.loc 1 80 1 view .LVU89
 366 0012 7047     		bx	lr
 367              	.L37:
  41:OkayAdsr.cpp  ****     this->runState = 1;
 368              		.loc 1 41 5 is_stmt 1 view .LVU90
  41:OkayAdsr.cpp  ****     this->runState = 1;
 369              		.loc 1 41 20 is_stmt 0 view .LVU91
 370 0014 0122     		movs	r2, #1
  42:OkayAdsr.cpp  ****     runDeltaTime = 0;
 371              		.loc 1 42 18 view .LVU92
 372 0016 0023     		movs	r3, #0
  41:OkayAdsr.cpp  ****     this->runState = 1;
 373              		.loc 1 41 20 view .LVU93
 374 0018 0262     		str	r2, [r0, #32]
  42:OkayAdsr.cpp  ****     runDeltaTime = 0;
 375              		.loc 1 42 5 is_stmt 1 view .LVU94
  42:OkayAdsr.cpp  ****     runDeltaTime = 0;
 376              		.loc 1 42 18 is_stmt 0 view .LVU95
 377 001a C361     		str	r3, [r0, #28]	@ float
  47:OkayAdsr.cpp  ****   if(this->runState == 1) {
 378              		.loc 1 47 3 is_stmt 1 view .LVU96
 379              	.L27:
  48:OkayAdsr.cpp  ****     if(attackTimeSamples == 0) {
 380              		.loc 1 48 5 view .LVU97
  48:OkayAdsr.cpp  ****     if(attackTimeSamples == 0) {
 381              		.loc 1 48 8 is_stmt 0 view .LVU98
 382 001c D0ED047A 		vldr.32	s15, [r0, #16]
  48:OkayAdsr.cpp  ****     if(attackTimeSamples == 0) {
 383              		.loc 1 48 5 view .LVU99
 384 0020 F5EE407A 		vcmp.f32	s15, #0
 385 0024 F1EE10FA 		vmrs	APSR_nzcv, FPSCR
 386 0028 11D1     		bne	.L29
 387              	.L31:
  56:OkayAdsr.cpp  ****       this->output = 1;
 388              		.loc 1 56 7 is_stmt 1 view .LVU100
  56:OkayAdsr.cpp  ****       this->output = 1;
ARM GAS  /var/folders/r3/q90cplg97h56h5p7mk3669200000gn/T//cc4OtIRC.s 			page 10


 389              		.loc 1 56 20 is_stmt 0 view .LVU101
 390 002a F7EE007A 		vmov.f32	s15, #1.0e+0
  57:OkayAdsr.cpp  ****       this->runState = 2;
 391              		.loc 1 57 22 view .LVU102
 392 002e 0223     		movs	r3, #2
 393 0030 0362     		str	r3, [r0, #32]
 394 0032 B0EE670A 		vmov.f32	s0, s15
  56:OkayAdsr.cpp  ****       this->output = 1;
 395              		.loc 1 56 20 view .LVU103
 396 0036 C0ED027A 		vstr.32	s15, [r0, #8]
  57:OkayAdsr.cpp  ****       this->runState = 2;
 397              		.loc 1 57 7 is_stmt 1 view .LVU104
 398 003a 7047     		bx	lr
 399              	.L36:
  34:OkayAdsr.cpp  ****   if(!isGateHigh && this->runState == 0) {
 400              		.loc 1 34 18 is_stmt 0 discriminator 1 view .LVU105
 401 003c 002B     		cmp	r3, #0
 402 003e E2D1     		bne	.L25
  35:OkayAdsr.cpp  ****     this->output = 0;
 403              		.loc 1 35 5 is_stmt 1 view .LVU106
  35:OkayAdsr.cpp  ****     this->output = 0;
 404              		.loc 1 35 18 is_stmt 0 view .LVU107
 405 0040 DFED1D7A 		vldr.32	s15, .L39
  36:OkayAdsr.cpp  ****     return this->output;
 406              		.loc 1 36 18 view .LVU108
 407 0044 B0EE670A 		vmov.f32	s0, s15
  35:OkayAdsr.cpp  ****     this->output = 0;
 408              		.loc 1 35 18 view .LVU109
 409 0048 C0ED027A 		vstr.32	s15, [r0, #8]
  36:OkayAdsr.cpp  ****     return this->output;
 410              		.loc 1 36 5 is_stmt 1 view .LVU110
  36:OkayAdsr.cpp  ****     return this->output;
 411              		.loc 1 36 18 is_stmt 0 view .LVU111
 412 004c 7047     		bx	lr
 413              	.L29:
  51:OkayAdsr.cpp  ****       this->output = this->output + (this->blockSize * (1 / attackTimeSamples));
 414              		.loc 1 51 7 is_stmt 1 view .LVU112
  51:OkayAdsr.cpp  ****       this->output = this->output + (this->blockSize * (1 / attackTimeSamples));
 415              		.loc 1 51 59 is_stmt 0 view .LVU113
 416 004e B7EE007A 		vmov.f32	s14, #1.0e+0
  51:OkayAdsr.cpp  ****       this->output = this->output + (this->blockSize * (1 / attackTimeSamples));
 417              		.loc 1 51 35 view .LVU114
 418 0052 90ED020A 		vldr.32	s0, [r0, #8]
 419 0056 90ED016A 		vldr.32	s12, [r0, #4]
  51:OkayAdsr.cpp  ****       this->output = this->output + (this->blockSize * (1 / attackTimeSamples));
 420              		.loc 1 51 59 view .LVU115
 421 005a C7EE276A 		vdiv.f32	s13, s14, s15
  51:OkayAdsr.cpp  ****       this->output = this->output + (this->blockSize * (1 / attackTimeSamples));
 422              		.loc 1 51 35 view .LVU116
 423 005e A6EE260A 		vfma.f32	s0, s12, s13
  55:OkayAdsr.cpp  ****     if(this->output >= 1) {
 424              		.loc 1 55 5 view .LVU117
 425 0062 B4EEC70A 		vcmpe.f32	s0, s14
 426 0066 80ED020A 		vstr.32	s0, [r0, #8]
  55:OkayAdsr.cpp  ****     if(this->output >= 1) {
 427              		.loc 1 55 5 is_stmt 1 view .LVU118
 428 006a F1EE10FA 		vmrs	APSR_nzcv, FPSCR
ARM GAS  /var/folders/r3/q90cplg97h56h5p7mk3669200000gn/T//cc4OtIRC.s 			page 11


 429 006e D0DB     		blt	.L23
 430 0070 DBE7     		b	.L31
 431              	.L38:
  64:OkayAdsr.cpp  ****     if(decayTimeSamples == 0) {
 432              		.loc 1 64 5 view .LVU119
  64:OkayAdsr.cpp  ****     if(decayTimeSamples == 0) {
 433              		.loc 1 64 8 is_stmt 0 view .LVU120
 434 0072 D0ED057A 		vldr.32	s15, [r0, #20]
  64:OkayAdsr.cpp  ****     if(decayTimeSamples == 0) {
 435              		.loc 1 64 5 view .LVU121
 436 0076 F5EE407A 		vcmp.f32	s15, #0
 437 007a F1EE10FA 		vmrs	APSR_nzcv, FPSCR
 438 007e 08D1     		bne	.L33
 439              	.L35:
  72:OkayAdsr.cpp  ****       this->output = 0;
 440              		.loc 1 72 7 is_stmt 1 view .LVU122
  72:OkayAdsr.cpp  ****       this->output = 0;
 441              		.loc 1 72 20 is_stmt 0 view .LVU123
 442 0080 DFED0D7A 		vldr.32	s15, .L39
  73:OkayAdsr.cpp  ****       this->runState = 0;
 443              		.loc 1 73 22 view .LVU124
 444 0084 0023     		movs	r3, #0
 445 0086 B0EE670A 		vmov.f32	s0, s15
  72:OkayAdsr.cpp  ****       this->output = 0;
 446              		.loc 1 72 20 view .LVU125
 447 008a C0ED027A 		vstr.32	s15, [r0, #8]
  73:OkayAdsr.cpp  ****       this->runState = 0;
 448              		.loc 1 73 7 is_stmt 1 view .LVU126
  73:OkayAdsr.cpp  ****       this->runState = 0;
 449              		.loc 1 73 22 is_stmt 0 view .LVU127
 450 008e 0362     		str	r3, [r0, #32]
 451 0090 7047     		bx	lr
 452              	.L33:
  67:OkayAdsr.cpp  ****       this->output = this->output - (this->blockSize * (1 / decayTimeSamples));
 453              		.loc 1 67 7 is_stmt 1 view .LVU128
  67:OkayAdsr.cpp  ****       this->output = this->output - (this->blockSize * (1 / decayTimeSamples));
 454              		.loc 1 67 59 is_stmt 0 view .LVU129
 455 0092 B7EE006A 		vmov.f32	s12, #1.0e+0
  67:OkayAdsr.cpp  ****       this->output = this->output - (this->blockSize * (1 / decayTimeSamples));
 456              		.loc 1 67 35 view .LVU130
 457 0096 90ED020A 		vldr.32	s0, [r0, #8]
 458 009a D0ED016A 		vldr.32	s13, [r0, #4]
  67:OkayAdsr.cpp  ****       this->output = this->output - (this->blockSize * (1 / decayTimeSamples));
 459              		.loc 1 67 59 view .LVU131
 460 009e 86EE277A 		vdiv.f32	s14, s12, s15
  67:OkayAdsr.cpp  ****       this->output = this->output - (this->blockSize * (1 / decayTimeSamples));
 461              		.loc 1 67 35 view .LVU132
 462 00a2 A6EEC70A 		vfms.f32	s0, s13, s14
  71:OkayAdsr.cpp  ****     if(this->output <= 0) {
 463              		.loc 1 71 5 view .LVU133
 464 00a6 B5EEC00A 		vcmpe.f32	s0, #0
 465 00aa 80ED020A 		vstr.32	s0, [r0, #8]
  71:OkayAdsr.cpp  ****     if(this->output <= 0) {
 466              		.loc 1 71 5 is_stmt 1 view .LVU134
 467 00ae F1EE10FA 		vmrs	APSR_nzcv, FPSCR
 468 00b2 AED8     		bhi	.L23
 469 00b4 E4E7     		b	.L35
ARM GAS  /var/folders/r3/q90cplg97h56h5p7mk3669200000gn/T//cc4OtIRC.s 			page 12


 470              	.L40:
 471 00b6 00BF     		.align	2
 472              	.L39:
 473 00b8 00000000 		.word	0
 474              		.cfi_endproc
 475              	.LFE549:
 477              		.text
 478              	.Letext0:
 479              		.file 2 "/usr/local/Cellar/arm-none-eabi-gcc/10.3-2021.07/gcc/arm-none-eabi/include/c++/10.3.1/cma
 480              		.file 3 "/usr/local/Cellar/arm-none-eabi-gcc/10.3-2021.07/gcc/arm-none-eabi/include/c++/10.3.1/bit
 481              		.file 4 "/usr/local/Cellar/arm-none-eabi-gcc/10.3-2021.07/gcc/arm-none-eabi/include/c++/10.3.1/arm
 482              		.file 5 "/usr/local/Cellar/arm-none-eabi-gcc/10.3-2021.07/gcc/arm-none-eabi/include/math.h"
 483              		.file 6 "/usr/local/Cellar/arm-none-eabi-gcc/10.3-2021.07/gcc/arm-none-eabi/include/c++/10.3.1/mat
 484              		.file 7 "OkayAdsr.h"
 485              		.file 8 "<built-in>"
ARM GAS  /var/folders/r3/q90cplg97h56h5p7mk3669200000gn/T//cc4OtIRC.s 			page 13

